; Function Attrs: mustprogress uwtable
define hidden noundef zeroext i1 @_ZN4cvc58internal6theory2bv8TheoryBV20needsCheckLastEffortEv(ptr nocapture noundef nonnull readonly align 8 dereferenceable(3808) %this) unnamed_addr #3 align 2 {
entry:
  %d_internal = getelementptr inbounds i8, ptr %this, i64 408
  %0 = load ptr, ptr %d_internal, align 8
  %vtable = load ptr, ptr %0, align 8
  %vfn = getelementptr inbounds i8, ptr %vtable, i64 72
  %1 = load ptr, ptr %vfn, align 8
  %call2 = tail call noundef zeroext i1 %1(ptr noundef nonnull align 8 dereferenceable(32) %0)
  ret i1 %call2
}